target datalayout = "e-m:e-p270:32:32-p271:32:32-p272:64:64-i64:64-i128:128-f80:128-n8:16:32:64-S128"
target triple = "x86_64-pc-linux-gnu"

%struct._zval_struct = type { %union._zend_value, %union.anon, %union.anon.2 }
%union._zend_value = type { i64 }
%union.anon = type { i32 }
%union.anon.2 = type { i32 }
%struct._zend_refcounted_h = type { i32, %union.anon.3 }
%union.anon.3 = type { i32 }
%struct._ze_xmlwriter_object = type { ptr, ptr, %struct._zend_object }
%struct._zend_object = type { %struct._zend_refcounted_h, i32, ptr, ptr, ptr, [1 x %struct._zval_struct] }

; Function Attrs: nounwind uwtable
define internal ptr @php_xmlwriter_fetch_object(ptr noundef %0) #0 {
  %2 = alloca ptr, align 8
  store ptr %0, ptr %2, align 8
  %3 = load ptr, ptr %2, align 8
  %4 = getelementptr inbounds i8, ptr %3, i64 -16
  ret ptr %4
}

; Function Attrs: nounwind uwtable
define internal void @xmlwriter_object_dtor(ptr noundef %0) #0 {
  %2 = alloca ptr, align 8
  %3 = alloca ptr, align 8
  store ptr %0, ptr %2, align 8
  %4 = load ptr, ptr %2, align 8
  %5 = call ptr @php_xmlwriter_fetch_object(ptr noundef %4)
  store ptr %5, ptr %3, align 8
  %6 = load ptr, ptr %3, align 8
  %7 = getelementptr inbounds %struct._ze_xmlwriter_object, ptr %6, i32 0, i32 0
  %8 = load ptr, ptr %7, align 8
  %9 = icmp ne ptr %8, null
  br i1 %9, label %10, label %16

10:                                               ; preds = %1
  %11 = load ptr, ptr %3, align 8
  %12 = getelementptr inbounds %struct._ze_xmlwriter_object, ptr %11, i32 0, i32 0
  %13 = load ptr, ptr %12, align 8
  call void @xmlFreeTextWriter(ptr noundef %13)
  %14 = load ptr, ptr %3, align 8
  %15 = getelementptr inbounds %struct._ze_xmlwriter_object, ptr %14, i32 0, i32 0
  store ptr null, ptr %15, align 8
  br label %16

16:                                               ; preds = %10, %1
  %17 = load ptr, ptr %3, align 8
  %18 = getelementptr inbounds %struct._ze_xmlwriter_object, ptr %17, i32 0, i32 1
  %19 = load ptr, ptr %18, align 8
  %20 = icmp ne ptr %19, null
  br i1 %20, label %21, label %27

21:                                               ; preds = %16
  %22 = load ptr, ptr %3, align 8
  %23 = getelementptr inbounds %struct._ze_xmlwriter_object, ptr %22, i32 0, i32 1
  %24 = load ptr, ptr %23, align 8
  call void @xmlBufferFree(ptr noundef %24)
  %25 = load ptr, ptr %3, align 8
  %26 = getelementptr inbounds %struct._ze_xmlwriter_object, ptr %25, i32 0, i32 1
  store ptr null, ptr %26, align 8
  br label %27

27:                                               ; preds = %21, %16
  %28 = load ptr, ptr %2, align 8
  call void @zend_objects_destroy_object(ptr noundef %28)
  ret void
}