; Function Attrs: nounwind uwtable
define internal void @xmlwriter_object_dtor(ptr noundef %0) #0 {
  %2 = getelementptr inbounds i8, ptr %0, i64 -16
  %3 = load ptr, ptr %2, align 8
  %.not = icmp eq ptr %3, null
  br i1 %.not, label %5, label %4

4:                                                ; preds = %1
  tail call void @xmlFreeTextWriter(ptr noundef nonnull %3) #11
  store ptr null, ptr %2, align 8
  br label %5

5:                                                ; preds = %4, %1
  %6 = getelementptr inbounds i8, ptr %0, i64 -8
  %7 = load ptr, ptr %6, align 8
  %.not9 = icmp eq ptr %7, null
  br i1 %.not9, label %9, label %8

8:                                                ; preds = %5
  tail call void @xmlBufferFree(ptr noundef nonnull %7) #11
  store ptr null, ptr %6, align 8
  br label %9

9:                                                ; preds = %8, %5
  tail call void @zend_objects_destroy_object(ptr noundef nonnull %0) #11
  ret void
}